target datalayout = "e-m:e-p270:32:32-p271:32:32-p272:64:64-i64:64-i128:128-f80:128-n8:16:32:64-S128"
target triple = "x86_64-pc-linux-gnu"

%"struct.icu_77::FormattedStringBuilder::Field" = type { i8 }
%"class.icu_77::FormattedStringBuilder" = type { i8, %"union.icu_77::FormattedStringBuilder::ValueOrHeapArray", %"union.icu_77::FormattedStringBuilder::ValueOrHeapArray.0", i32, i32 }
%"union.icu_77::FormattedStringBuilder::ValueOrHeapArray" = type { %struct.anon, [64 x i8] }
%struct.anon = type { ptr, i32 }
%"union.icu_77::FormattedStringBuilder::ValueOrHeapArray.0" = type { %struct.anon.1, [24 x i8] }
%struct.anon.1 = type { ptr, i32 }

; Function Attrs: inlinehint mustprogress nounwind uwtable
define linkonce_odr noundef ptr @_ZN6icu_7722FormattedStringBuilder11getFieldPtrEv(ptr noundef nonnull align 8 dereferenceable(136) %0) #5 comdat align 2 {
  %2 = alloca ptr, align 8
  store ptr %0, ptr %2, align 8, !tbaa !3
  %3 = load ptr, ptr %2, align 8
  %4 = getelementptr inbounds nuw %"class.icu_77::FormattedStringBuilder", ptr %3, i32 0, i32 0
  %5 = load i8, ptr %4, align 8, !tbaa !8, !range !14, !noundef !15
  %6 = trunc i8 %5 to i1
  br i1 %6, label %7, label %11

7:                                                ; preds = %1
  %8 = getelementptr inbounds nuw %"class.icu_77::FormattedStringBuilder", ptr %3, i32 0, i32 2
  %9 = getelementptr inbounds nuw %struct.anon.1, ptr %8, i32 0, i32 0
  %10 = load ptr, ptr %9, align 8, !tbaa !16
  br label %14

11:                                               ; preds = %1
  %12 = getelementptr inbounds nuw %"class.icu_77::FormattedStringBuilder", ptr %3, i32 0, i32 2
  %13 = getelementptr inbounds [40 x %"struct.icu_77::FormattedStringBuilder::Field"], ptr %12, i64 0, i64 0
  br label %14

14:                                               ; preds = %11, %7
  %15 = phi ptr [ %10, %7 ], [ %13, %11 ]
  ret ptr %15
}

; Function Attrs: inlinehint mustprogress nounwind uwtable
define internal void @_ZN12_GLOBAL__N_113uprv_memmove2EPvPKvm(ptr noundef %0, ptr noundef %1, i64 noundef %2) #5 {
  %4 = alloca ptr, align 8
  %5 = alloca ptr, align 8
  %6 = alloca i64, align 8
  store ptr %0, ptr %4, align 8, !tbaa !22
  store ptr %1, ptr %5, align 8, !tbaa !22
  store i64 %2, ptr %6, align 8, !tbaa !23
  %7 = load i64, ptr %6, align 8, !tbaa !23
  %8 = icmp ugt i64 %7, 0
  br i1 %8, label %9, label %15

9:                                                ; preds = %3
  br label %10

10:                                               ; preds = %9
  %11 = load ptr, ptr %4, align 8, !tbaa !22
  %12 = load ptr, ptr %5, align 8, !tbaa !22
  %13 = load i64, ptr %6, align 8, !tbaa !23
  call void @llvm.memmove.p0.p0.i64(ptr align 1 %11, ptr align 1 %12, i64 %13, i1 false)
  br label %14

14:                                               ; preds = %10
  br label %15

15:                                               ; preds = %14, %3
  ret void
}

; Function Attrs: inlinehint mustprogress nounwind uwtable
define linkonce_odr noundef ptr @_ZN6icu_7722FormattedStringBuilder10getCharPtrEv(ptr noundef nonnull align 8 dereferenceable(136) %0) #5 comdat align 2 {
  %2 = alloca ptr, align 8
  store ptr %0, ptr %2, align 8, !tbaa !3
  %3 = load ptr, ptr %2, align 8
  %4 = getelementptr inbounds nuw %"class.icu_77::FormattedStringBuilder", ptr %3, i32 0, i32 0
  %5 = load i8, ptr %4, align 8, !tbaa !8, !range !14, !noundef !15
  %6 = trunc i8 %5 to i1
  br i1 %6, label %7, label %11

7:                                                ; preds = %1
  %8 = getelementptr inbounds nuw %"class.icu_77::FormattedStringBuilder", ptr %3, i32 0, i32 1
  %9 = getelementptr inbounds nuw %struct.anon, ptr %8, i32 0, i32 0
  %10 = load ptr, ptr %9, align 8, !tbaa !16
  br label %14

11:                                               ; preds = %1
  %12 = getelementptr inbounds nuw %"class.icu_77::FormattedStringBuilder", ptr %3, i32 0, i32 1
  %13 = getelementptr inbounds [40 x i16], ptr %12, i64 0, i64 0
  br label %14

14:                                               ; preds = %11, %7
  %15 = phi ptr [ %10, %7 ], [ %13, %11 ]
  ret ptr %15
}

; Function Attrs: mustprogress uwtable
define noundef i32 @_ZN6icu_7722FormattedStringBuilder6removeEii(ptr noundef nonnull align 8 dereferenceable(136) %0, i32 noundef %1, i32 noundef %2) #3 align 2 {
  %4 = alloca ptr, align 8
  %5 = alloca i32, align 4
  %6 = alloca i32, align 4
  %7 = alloca i32, align 4
  store ptr %0, ptr %4, align 8, !tbaa !3
  store i32 %1, ptr %5, align 4, !tbaa !17
  store i32 %2, ptr %6, align 4, !tbaa !17
  %8 = load ptr, ptr %4, align 8
  call void @llvm.lifetime.start.p0(i64 4, ptr %7) #11
  %9 = load i32, ptr %5, align 4, !tbaa !17
  %10 = getelementptr inbounds nuw %"class.icu_77::FormattedStringBuilder", ptr %8, i32 0, i32 3
  %11 = load i32, ptr %10, align 8, !tbaa !12
  %12 = add nsw i32 %9, %11
  store i32 %12, ptr %7, align 4, !tbaa !17
  %13 = call noundef ptr @_ZN6icu_7722FormattedStringBuilder10getCharPtrEv(ptr noundef nonnull align 8 dereferenceable(136) %8)
  %14 = load i32, ptr %7, align 4, !tbaa !17
  %15 = sext i32 %14 to i64
  %16 = getelementptr inbounds i16, ptr %13, i64 %15
  %17 = call noundef ptr @_ZN6icu_7722FormattedStringBuilder10getCharPtrEv(ptr noundef nonnull align 8 dereferenceable(136) %8)
  %18 = load i32, ptr %7, align 4, !tbaa !17
  %19 = sext i32 %18 to i64
  %20 = getelementptr inbounds i16, ptr %17, i64 %19
  %21 = load i32, ptr %6, align 4, !tbaa !17
  %22 = sext i32 %21 to i64
  %23 = getelementptr inbounds i16, ptr %20, i64 %22
  %24 = getelementptr inbounds nuw %"class.icu_77::FormattedStringBuilder", ptr %8, i32 0, i32 4
  %25 = load i32, ptr %24, align 4, !tbaa !13
  %26 = load i32, ptr %5, align 4, !tbaa !17
  %27 = sub nsw i32 %25, %26
  %28 = load i32, ptr %6, align 4, !tbaa !17
  %29 = sub nsw i32 %27, %28
  %30 = sext i32 %29 to i64
  %31 = mul i64 2, %30
  call void @_ZN12_GLOBAL__N_113uprv_memmove2EPvPKvm(ptr noundef %16, ptr noundef %23, i64 noundef %31)
  %32 = call noundef ptr @_ZN6icu_7722FormattedStringBuilder11getFieldPtrEv(ptr noundef nonnull align 8 dereferenceable(136) %8)
  %33 = load i32, ptr %7, align 4, !tbaa !17
  %34 = sext i32 %33 to i64
  %35 = getelementptr inbounds %"struct.icu_77::FormattedStringBuilder::Field", ptr %32, i64 %34
  %36 = call noundef ptr @_ZN6icu_7722FormattedStringBuilder11getFieldPtrEv(ptr noundef nonnull align 8 dereferenceable(136) %8)
  %37 = load i32, ptr %7, align 4, !tbaa !17
  %38 = sext i32 %37 to i64
  %39 = getelementptr inbounds %"struct.icu_77::FormattedStringBuilder::Field", ptr %36, i64 %38
  %40 = load i32, ptr %6, align 4, !tbaa !17
  %41 = sext i32 %40 to i64
  %42 = getelementptr inbounds %"struct.icu_77::FormattedStringBuilder::Field", ptr %39, i64 %41
  %43 = getelementptr inbounds nuw %"class.icu_77::FormattedStringBuilder", ptr %8, i32 0, i32 4
  %44 = load i32, ptr %43, align 4, !tbaa !13
  %45 = load i32, ptr %5, align 4, !tbaa !17
  %46 = sub nsw i32 %44, %45
  %47 = load i32, ptr %6, align 4, !tbaa !17
  %48 = sub nsw i32 %46, %47
  %49 = sext i32 %48 to i64
  %50 = mul i64 1, %49
  call void @_ZN12_GLOBAL__N_113uprv_memmove2EPvPKvm(ptr noundef %35, ptr noundef %42, i64 noundef %50)
  %51 = load i32, ptr %6, align 4, !tbaa !17
  %52 = getelementptr inbounds nuw %"class.icu_77::FormattedStringBuilder", ptr %8, i32 0, i32 4
  %53 = load i32, ptr %52, align 4, !tbaa !13
  %54 = sub nsw i32 %53, %51
  store i32 %54, ptr %52, align 4, !tbaa !13
  %55 = load i32, ptr %7, align 4, !tbaa !17
  call void @llvm.lifetime.end.p0(i64 4, ptr %7) #11
  ret i32 %55
}