; Function Attrs: mustprogress nofree norecurse nosync nounwind willreturn memory(readwrite, inaccessiblemem: none) uwtable
define noundef i32 @_ZN6icu_7722FormattedStringBuilder6removeEii(ptr noundef nonnull align 8 captures(none) dereferenceable(136) %0, i32 noundef %1, i32 noundef %2) local_unnamed_addr #12 align 2 {
  %4 = getelementptr inbounds nuw i8, ptr %0, i64 128
  %5 = load i32, ptr %4, align 8, !tbaa !9
  %6 = add nsw i32 %5, %1
  %7 = sext i32 %6 to i64
  %8 = sext i32 %2 to i64
  %9 = getelementptr inbounds nuw i8, ptr %0, i64 132
  %10 = load i32, ptr %9, align 4, !tbaa !10
  %11 = add i32 %2, %1
  %.not.i = icmp eq i32 %10, %11
  br i1 %.not.i, label %_ZN12_GLOBAL__N_113uprv_memmove2EPvPKvm.exit, label %12

12:                                               ; preds = %3
  %13 = sub i32 %10, %11
  %14 = sext i32 %13 to i64
  %15 = shl nsw i64 %14, 1
  %16 = load i8, ptr %0, align 8, !tbaa !3, !range !11, !noundef !12
  %17 = trunc nuw i8 %16 to i1
  %18 = getelementptr inbounds nuw i8, ptr %0, i64 8
  %19 = load ptr, ptr %18, align 8
  %20 = select i1 %17, ptr %19, ptr %18
  %21 = getelementptr inbounds i16, ptr %20, i64 %7
  %22 = getelementptr inbounds i16, ptr %21, i64 %8
  tail call void @llvm.memmove.p0.p0.i64(ptr align 1 %21, ptr readonly align 1 %22, i64 range(i64 -4294967296, 4294967295) %15, i1 false)
  %.pre = load i32, ptr %9, align 4, !tbaa !10
  br label %_ZN12_GLOBAL__N_113uprv_memmove2EPvPKvm.exit

_ZN12_GLOBAL__N_113uprv_memmove2EPvPKvm.exit:     ; preds = %3, %12
  %23 = phi i32 [ %10, %3 ], [ %.pre, %12 ]
  %.not.i13 = icmp eq i32 %23, %11
  br i1 %.not.i13, label %_ZN12_GLOBAL__N_113uprv_memmove2EPvPKvm.exit14, label %24

24:                                               ; preds = %_ZN12_GLOBAL__N_113uprv_memmove2EPvPKvm.exit
  %25 = sub i32 %23, %11
  %26 = sext i32 %25 to i64
  %27 = load i8, ptr %0, align 8, !tbaa !3, !range !11, !noundef !12
  %28 = trunc nuw i8 %27 to i1
  %29 = getelementptr inbounds nuw i8, ptr %0, i64 88
  %30 = load ptr, ptr %29, align 8
  %31 = select i1 %28, ptr %30, ptr %29
  %32 = getelementptr inbounds %"struct.icu_77::FormattedStringBuilder::Field", ptr %31, i64 %7
  %33 = getelementptr inbounds %"struct.icu_77::FormattedStringBuilder::Field", ptr %32, i64 %8
  tail call void @llvm.memmove.p0.p0.i64(ptr align 1 %32, ptr readonly align 1 %33, i64 range(i64 -4294967296, 4294967295) %26, i1 false)
  %.pre15 = load i32, ptr %9, align 4, !tbaa !10
  br label %_ZN12_GLOBAL__N_113uprv_memmove2EPvPKvm.exit14

_ZN12_GLOBAL__N_113uprv_memmove2EPvPKvm.exit14:   ; preds = %_ZN12_GLOBAL__N_113uprv_memmove2EPvPKvm.exit, %24
  %34 = phi i32 [ %11, %_ZN12_GLOBAL__N_113uprv_memmove2EPvPKvm.exit ], [ %.pre15, %24 ]
  %35 = sub nsw i32 %34, %2
  store i32 %35, ptr %9, align 4, !tbaa !10
  ret i32 %6
}